target datalayout = "e-m:e-p270:32:32-p271:32:32-p272:64:64-i64:64-i128:128-f80:128-n8:16:32:64-S128"
target triple = "x86_64-pc-linux-gnu"

%struct.RBasic = type { i64, i64 }
%struct.rb_execution_context_struct = type { ptr, i64, ptr, ptr, i32, i32, ptr, ptr, ptr, i64, i64, i64, ptr, i64, ptr, i64, i64, i8, i8, i64, %struct.anon.0 }
%struct.anon.0 = type { ptr, ptr, i64, [1 x %struct.__jmp_buf_tag] }
%struct.__jmp_buf_tag = type { [8 x i64], i32, %struct.__sigset_t }
%struct.__sigset_t = type { [16 x i64] }

@rb_eArgError = external global i64, align 8
@.str.57 = private unnamed_addr constant [37 x i8] c"undefined method '%1$s' for %3$s%4$s\00", align 1
@rb_eNoMethodError = external global i64, align 8
@.str.159 = private unnamed_addr constant [21 x i8] c"no method name given\00", align 1
@.str.163 = private unnamed_addr constant [47 x i8] c"method name must be a Symbol but %li\0B is given\00", align 1
@.str.164 = private unnamed_addr constant [42 x i8] c"private method '%1$s' called for %3$s%4$s\00", align 1
@.str.165 = private unnamed_addr constant [44 x i8] c"protected method '%1$s' called for %3$s%4$s\00", align 1
@.str.166 = private unnamed_addr constant [55 x i8] c"undefined local variable or method '%1$s' for %3$s%4$s\00", align 1
@rb_eNameError = external global i64, align 8
@.str.167 = private unnamed_addr constant [48 x i8] c"super: no superclass method '%1$s' for %3$s%4$s\00", align 1

; Function Attrs: inlinehint nounwind sspstrong willreturn memory(none) uwtable
define internal zeroext i1 @RB_IMMEDIATE_P(i64 noundef %0) #4 {
  %2 = alloca i64, align 8
  store i64 %0, ptr %2, align 8, !tbaa !31
  %3 = load i64, ptr %2, align 8, !tbaa !31
  %4 = and i64 %3, 7
  %5 = icmp ne i64 %4, 0
  ret i1 %5
}

; Function Attrs: inlinehint nounwind sspstrong willreturn memory(read) uwtable
define internal i32 @RB_BUILTIN_TYPE(i64 noundef %0) #1 {
  %2 = alloca i64, align 8
  %3 = alloca i64, align 8
  store i64 %0, ptr %2, align 8, !tbaa !31
  call void @llvm.lifetime.start.p0(i64 8, ptr %3) #21
  %4 = load i64, ptr %2, align 8, !tbaa !31
  %5 = inttoptr i64 %4 to ptr
  %6 = getelementptr inbounds nuw %struct.RBasic, ptr %5, i32 0, i32 0
  %7 = load i64, ptr %6, align 8, !tbaa !299
  %8 = and i64 %7, 31
  store i64 %8, ptr %3, align 8, !tbaa !31
  %9 = load i64, ptr %3, align 8, !tbaa !31
  %10 = trunc i64 %9 to i32
  call void @llvm.lifetime.end.p0(i64 8, ptr %3) #21
  ret i32 %10
}

; Function Attrs: inlinehint nounwind sspstrong willreturn memory(none) uwtable
define internal zeroext i1 @RB_SPECIAL_CONST_P(i64 noundef %0) #4 {
  %2 = alloca i64, align 8
  store i64 %0, ptr %2, align 8, !tbaa !31
  %3 = load i64, ptr %2, align 8, !tbaa !31
  %4 = icmp eq i64 %3, 0
  br i1 %4, label %8, label %5

5:                                                ; preds = %1
  %6 = load i64, ptr %2, align 8, !tbaa !31
  %7 = call zeroext i1 @RB_IMMEDIATE_P(i64 noundef %6) #36
  br label %8

8:                                                ; preds = %5, %1
  %9 = phi i1 [ true, %1 ], [ %7, %5 ]
  ret i1 %9
}

; Function Attrs: inlinehint nounwind sspstrong willreturn memory(read) uwtable
define internal zeroext i1 @RB_DYNAMIC_SYM_P(i64 noundef %0) #1 {
  %2 = alloca i1, align 1
  %3 = alloca i64, align 8
  store i64 %0, ptr %3, align 8, !tbaa !31
  %4 = load i64, ptr %3, align 8, !tbaa !31
  %5 = call zeroext i1 @RB_SPECIAL_CONST_P(i64 noundef %4) #36
  br i1 %5, label %6, label %7

6:                                                ; preds = %1
  store i1 false, ptr %2, align 1
  br label %11

7:                                                ; preds = %1
  %8 = load i64, ptr %3, align 8, !tbaa !31
  %9 = call i32 @RB_BUILTIN_TYPE(i64 noundef %8) #35
  %10 = icmp eq i32 %9, 20
  store i1 %10, ptr %2, align 1
  br label %11

11:                                               ; preds = %7, %6
  %12 = load i1, ptr %2, align 1
  ret i1 %12
}

; Function Attrs: inlinehint nounwind sspstrong willreturn memory(none) uwtable
define internal zeroext i1 @RB_STATIC_SYM_P(i64 noundef %0) #4 {
  %2 = alloca i64, align 8
  %3 = alloca i64, align 8
  store i64 %0, ptr %2, align 8, !tbaa !31
  call void @llvm.lifetime.start.p0(i64 8, ptr %3) #21
  store i64 255, ptr %3, align 8, !tbaa !31
  %4 = load i64, ptr %2, align 8, !tbaa !31
  %5 = and i64 %4, 255
  %6 = icmp eq i64 %5, 12
  call void @llvm.lifetime.end.p0(i64 8, ptr %3) #21
  ret i1 %6
}

; Function Attrs: nounwind sspstrong uwtable
define hidden i64 @rb_make_no_method_exception(i64 noundef %0, i64 noundef %1, i64 noundef %2, i32 noundef %3, ptr noundef %4, i32 noundef %5) #0 {
  %7 = alloca i64, align 8
  %8 = alloca i64, align 8
  %9 = alloca i64, align 8
  %10 = alloca i64, align 8
  %11 = alloca i32, align 4
  %12 = alloca ptr, align 8
  %13 = alloca i32, align 4
  %14 = alloca i64, align 8
  %15 = alloca i64, align 8
  %16 = alloca i32, align 4
  store i64 %0, ptr %8, align 8, !tbaa !31
  store i64 %1, ptr %9, align 8, !tbaa !31
  store i64 %2, ptr %10, align 8, !tbaa !31
  store i32 %3, ptr %11, align 4, !tbaa !24
  store ptr %4, ptr %12, align 8, !tbaa !7
  store i32 %5, ptr %13, align 4, !tbaa !24
  call void @llvm.lifetime.start.p0(i64 8, ptr %14) #21
  %17 = load ptr, ptr %12, align 8, !tbaa !7
  %18 = getelementptr i64, ptr %17, i64 0
  %19 = load i64, ptr %18, align 8, !tbaa !31
  store i64 %19, ptr %14, align 8, !tbaa !31
  %20 = load i64, ptr %9, align 8, !tbaa !31
  %21 = icmp ne i64 %20, 0
  br i1 %21, label %24, label %22

22:                                               ; preds = %6
  %23 = call i64 @rb_fstring_new(ptr noundef @.str.57, i64 noundef 36)
  store i64 %23, ptr %9, align 8, !tbaa !31
  br label %24

24:                                               ; preds = %22, %6
  %25 = load i64, ptr %8, align 8, !tbaa !31
  %26 = load i64, ptr @rb_eNoMethodError, align 8, !tbaa !31
  %27 = icmp eq i64 %25, %26
  br i1 %27, label %28, label %41

28:                                               ; preds = %24
  call void @llvm.lifetime.start.p0(i64 8, ptr %15) #21
  %29 = load i32, ptr %11, align 4, !tbaa !24
  %30 = sub i32 %29, 1
  %31 = sext i32 %30 to i64
  %32 = load ptr, ptr %12, align 8, !tbaa !7
  %33 = getelementptr i64, ptr %32, i64 1
  %34 = call i64 @rb_ary_new_from_values(i64 noundef %31, ptr noundef %33)
  store i64 %34, ptr %15, align 8, !tbaa !31
  %35 = load i64, ptr %9, align 8, !tbaa !31
  %36 = load i64, ptr %10, align 8, !tbaa !31
  %37 = load i64, ptr %14, align 8, !tbaa !31
  %38 = load i64, ptr %15, align 8, !tbaa !31
  %39 = load i32, ptr %13, align 4, !tbaa !24
  %40 = call i64 @rb_nomethod_err_new(i64 noundef %35, i64 noundef %36, i64 noundef %37, i64 noundef %38, i32 noundef %39)
  store i64 %40, ptr %7, align 8
  store i32 1, ptr %16, align 4
  call void @llvm.lifetime.end.p0(i64 8, ptr %15) #21
  br label %46

41:                                               ; preds = %24
  %42 = load i64, ptr %9, align 8, !tbaa !31
  %43 = load i64, ptr %10, align 8, !tbaa !31
  %44 = load i64, ptr %14, align 8, !tbaa !31
  %45 = call i64 @rb_name_err_new(i64 noundef %42, i64 noundef %43, i64 noundef %44)
  store i64 %45, ptr %7, align 8
  store i32 1, ptr %16, align 4
  br label %46

46:                                               ; preds = %41, %28
  call void @llvm.lifetime.end.p0(i64 8, ptr %14) #21
  %47 = load i64, ptr %7, align 8
  ret i64 %47
}

; Function Attrs: inlinehint nounwind sspstrong uwtable
define internal void @stack_check(ptr noundef %0) #2 {
  %2 = alloca ptr, align 8
  store ptr %0, ptr %2, align 8, !tbaa !33
  %3 = load ptr, ptr %2, align 8, !tbaa !33
  %4 = getelementptr inbounds nuw %struct.rb_execution_context_struct, ptr %3, i32 0, i32 17
  %5 = load i8, ptr %4, align 8, !tbaa !63
  %6 = zext i8 %5 to i32
  %7 = and i32 %6, 2
  %8 = icmp ne i32 %7, 0
  br i1 %8, label %21, label %9

9:                                                ; preds = %1
  %10 = load ptr, ptr %2, align 8, !tbaa !33
  %11 = call i32 @rb_ec_stack_check(ptr noundef %10)
  %12 = icmp ne i32 %11, 0
  br i1 %12, label %13, label %21

13:                                               ; preds = %9
  %14 = load ptr, ptr %2, align 8, !tbaa !33
  %15 = getelementptr inbounds nuw %struct.rb_execution_context_struct, ptr %14, i32 0, i32 17
  %16 = load i8, ptr %15, align 8, !tbaa !63
  %17 = zext i8 %16 to i32
  %18 = or i32 %17, 2
  %19 = trunc i32 %18 to i8
  store i8 %19, ptr %15, align 8, !tbaa !63
  %20 = load ptr, ptr %2, align 8, !tbaa !33
  call void @rb_ec_stack_overflow(ptr noundef %20, i32 noundef 0) #38
  unreachable

21:                                               ; preds = %9, %1
  ret void
}

; Function Attrs: inlinehint nounwind sspstrong willreturn memory(read) uwtable
define internal zeroext i1 @RB_SYMBOL_P(i64 noundef %0) #1 {
  %2 = alloca i64, align 8
  store i64 %0, ptr %2, align 8, !tbaa !31
  %3 = load i64, ptr %2, align 8, !tbaa !31
  %4 = call zeroext i1 @RB_STATIC_SYM_P(i64 noundef %3) #36
  br i1 %4, label %8, label %5

5:                                                ; preds = %1
  %6 = load i64, ptr %2, align 8, !tbaa !31
  %7 = call zeroext i1 @RB_DYNAMIC_SYM_P(i64 noundef %6) #35
  br label %8

8:                                                ; preds = %5, %1
  %9 = phi i1 [ true, %1 ], [ %7, %5 ]
  ret i1 %9
}

; Function Attrs: noreturn nounwind sspstrong uwtable
define internal void @raise_method_missing(ptr noundef %0, i32 noundef %1, ptr noundef %2, i64 noundef %3, i32 noundef %4) #7 {
  %6 = alloca ptr, align 8
  %7 = alloca i32, align 4
  %8 = alloca ptr, align 8
  %9 = alloca i64, align 8
  %10 = alloca i32, align 4
  %11 = alloca i64, align 8
  %12 = alloca i64, align 8
  %13 = alloca i64, align 8
  store ptr %0, ptr %6, align 8, !tbaa !33
  store i32 %1, ptr %7, align 4, !tbaa !24
  store ptr %2, ptr %8, align 8, !tbaa !7
  store i64 %3, ptr %9, align 8, !tbaa !31
  store i32 %4, ptr %10, align 4, !tbaa !24
  call void @llvm.lifetime.start.p0(i64 8, ptr %11) #21
  %14 = load i64, ptr @rb_eNoMethodError, align 8, !tbaa !31
  store i64 %14, ptr %11, align 8, !tbaa !31
  call void @llvm.lifetime.start.p0(i64 8, ptr %12) #21
  store i64 0, ptr %12, align 8, !tbaa !31
  %15 = load i32, ptr %7, align 4, !tbaa !24
  %16 = icmp eq i32 %15, 0
  %17 = xor i1 %16, true
  %18 = xor i1 %17, true
  %19 = zext i1 %18 to i32
  %20 = sext i32 %19 to i64
  %21 = call i64 @llvm.expect.i64(i64 %20, i64 0)
  %22 = icmp ne i64 %21, 0
  br i1 %22, label %23, label %25

23:                                               ; preds = %5
  %24 = load i64, ptr @rb_eArgError, align 8, !tbaa !31
  call void (i64, ptr, ...) @rb_raise(i64 noundef %24, ptr noundef @.str.159) #38
  unreachable

25:                                               ; preds = %5
  %26 = load ptr, ptr %8, align 8, !tbaa !7
  %27 = getelementptr i64, ptr %26, i64 0
  %28 = load i64, ptr %27, align 8, !tbaa !31
  %29 = call zeroext i1 @RB_SYMBOL_P(i64 noundef %28) #35
  %30 = xor i1 %29, true
  %31 = xor i1 %30, true
  %32 = xor i1 %31, true
  %33 = zext i1 %32 to i32
  %34 = sext i32 %33 to i64
  %35 = call i64 @llvm.expect.i64(i64 %34, i64 0)
  %36 = icmp ne i64 %35, 0
  br i1 %36, label %37, label %44

37:                                               ; preds = %25
  call void @llvm.lifetime.start.p0(i64 8, ptr %13) #21
  %38 = load i64, ptr @rb_eArgError, align 8, !tbaa !31
  store i64 %38, ptr %13, align 8, !tbaa !31
  %39 = load i64, ptr %13, align 8, !tbaa !31
  %40 = load ptr, ptr %8, align 8, !tbaa !7
  %41 = getelementptr i64, ptr %40, i64 0
  %42 = load i64, ptr %41, align 8, !tbaa !31
  %43 = call i64 @rb_obj_class(i64 noundef %42)
  call void (i64, ptr, ...) @rb_raise(i64 noundef %39, ptr noundef @.str.163, i64 noundef %43) #38
  unreachable

44:                                               ; preds = %25
  br label %45

45:                                               ; preds = %44
  %46 = load ptr, ptr %6, align 8, !tbaa !33
  call void @stack_check(ptr noundef %46)
  %47 = load i32, ptr %10, align 4, !tbaa !24
  %48 = and i32 %47, 1
  %49 = icmp ne i32 %48, 0
  br i1 %49, label %50, label %52

50:                                               ; preds = %45
  %51 = call i64 @rb_fstring_new(ptr noundef @.str.164, i64 noundef 41)
  store i64 %51, ptr %12, align 8, !tbaa !31
  br label %74

52:                                               ; preds = %45
  %53 = load i32, ptr %10, align 4, !tbaa !24
  %54 = and i32 %53, 2
  %55 = icmp ne i32 %54, 0
  br i1 %55, label %56, label %58

56:                                               ; preds = %52
  %57 = call i64 @rb_fstring_new(ptr noundef @.str.165, i64 noundef 43)
  store i64 %57, ptr %12, align 8, !tbaa !31
  br label %73

58:                                               ; preds = %52
  %59 = load i32, ptr %10, align 4, !tbaa !24
  %60 = and i32 %59, 8
  %61 = icmp ne i32 %60, 0
  br i1 %61, label %62, label %65

62:                                               ; preds = %58
  %63 = call i64 @rb_fstring_new(ptr noundef @.str.166, i64 noundef 54)
  store i64 %63, ptr %12, align 8, !tbaa !31
  %64 = load i64, ptr @rb_eNameError, align 8, !tbaa !31
  store i64 %64, ptr %11, align 8, !tbaa !31
  br label %72

65:                                               ; preds = %58
  %66 = load i32, ptr %10, align 4, !tbaa !24
  %67 = and i32 %66, 16
  %68 = icmp ne i32 %67, 0
  br i1 %68, label %69, label %71

69:                                               ; preds = %65
  %70 = call i64 @rb_fstring_new(ptr noundef @.str.167, i64 noundef 47)
  store i64 %70, ptr %12, align 8, !tbaa !31
  br label %71

71:                                               ; preds = %69, %65
  br label %72

72:                                               ; preds = %71, %62
  br label %73

73:                                               ; preds = %72, %56
  br label %74

74:                                               ; preds = %73, %50
  %75 = load i64, ptr %11, align 8, !tbaa !31
  %76 = load i64, ptr %12, align 8, !tbaa !31
  %77 = load i64, ptr %9, align 8, !tbaa !31
  %78 = load i32, ptr %7, align 4, !tbaa !24
  %79 = load ptr, ptr %8, align 8, !tbaa !7
  %80 = load i32, ptr %10, align 4, !tbaa !24
  %81 = and i32 %80, 12
  %82 = call i64 @rb_make_no_method_exception(i64 noundef %75, i64 noundef %76, i64 noundef %77, i32 noundef %78, ptr noundef %79, i32 noundef %81)
  store i64 %82, ptr %11, align 8, !tbaa !31
  %83 = load i32, ptr %10, align 4, !tbaa !24
  %84 = and i32 %83, 32
  %85 = icmp ne i32 %84, 0
  br i1 %85, label %87, label %86

86:                                               ; preds = %74
  call void @rb_vm_pop_cfunc_frame()
  br label %87

87:                                               ; preds = %86, %74
  %88 = load i64, ptr %11, align 8, !tbaa !31
  call void @rb_exc_raise(i64 noundef %88) #38
  unreachable
}