; Function Attrs: noreturn nounwind sspstrong uwtable
define internal fastcc void @raise_method_missing(ptr noundef %0, i32 noundef %1, ptr noundef %2, i64 noundef %3, i32 noundef %4) unnamed_addr #6 {
  %6 = load i64, ptr @rb_eNoMethodError, align 8, !tbaa !7
  %7 = icmp eq i32 %1, 0
  br i1 %7, label %8, label %10, !prof !176

8:                                                ; preds = %5
  %9 = load i64, ptr @rb_eArgError, align 8, !tbaa !7
  tail call void (i64, ptr, ...) @rb_raise(i64 noundef %9, ptr noundef nonnull @.str.159) #37
  unreachable

10:                                               ; preds = %5
  %11 = load i64, ptr %2, align 8, !tbaa !7
  %12 = and i64 %11, 255
  %13 = icmp eq i64 %12, 12
  br i1 %13, label %RB_SYMBOL_P.exit.thread, label %14

14:                                               ; preds = %10
  %15 = icmp eq i64 %11, 0
  %16 = and i64 %11, 7
  %17 = icmp ne i64 %16, 0
  %18 = or i1 %15, %17
  br i1 %18, label %RB_SYMBOL_P.exit.thread23, label %RB_SYMBOL_P.exit, !prof !311

RB_SYMBOL_P.exit:                                 ; preds = %14
  %19 = inttoptr i64 %11 to ptr
  %20 = load i64, ptr %19, align 8, !tbaa !97
  %21 = and i64 %20, 31
  %22 = icmp eq i64 %21, 20
  br i1 %22, label %RB_SYMBOL_P.exit.thread, label %RB_SYMBOL_P.exit.thread23, !prof !693

RB_SYMBOL_P.exit.thread23:                        ; preds = %14, %RB_SYMBOL_P.exit
  %23 = load i64, ptr @rb_eArgError, align 8, !tbaa !7
  %24 = tail call i64 @rb_obj_class(i64 noundef %11) #21
  tail call void (i64, ptr, ...) @rb_raise(i64 noundef %23, ptr noundef nonnull @.str.163, i64 noundef %24) #37
  unreachable

RB_SYMBOL_P.exit.thread:                          ; preds = %10, %RB_SYMBOL_P.exit
  %25 = getelementptr inbounds nuw i8, ptr %0, i64 128
  %26 = load i8, ptr %25, align 8, !tbaa !59
  %27 = and i8 %26, 2
  %.not.i = icmp eq i8 %27, 0
  br i1 %.not.i, label %28, label %stack_check.exit

28:                                               ; preds = %RB_SYMBOL_P.exit.thread
  %29 = tail call i32 @rb_ec_stack_check(ptr noundef nonnull %0) #21
  %.not4.i = icmp eq i32 %29, 0
  br i1 %.not4.i, label %stack_check.exit, label %30

30:                                               ; preds = %28
  %31 = load i8, ptr %25, align 8, !tbaa !59
  %32 = or i8 %31, 2
  store i8 %32, ptr %25, align 8, !tbaa !59
  tail call void @rb_ec_stack_overflow(ptr noundef nonnull %0, i32 noundef 0) #56
  unreachable

stack_check.exit:                                 ; preds = %RB_SYMBOL_P.exit.thread, %28
  %33 = and i32 %4, 1
  %.not = icmp eq i32 %33, 0
  br i1 %.not, label %36, label %34

34:                                               ; preds = %stack_check.exit
  %35 = tail call i64 @rb_fstring_new(ptr noundef nonnull @.str.164, i64 noundef 41) #21
  br label %51

36:                                               ; preds = %stack_check.exit
  %37 = and i32 %4, 2
  %.not18 = icmp eq i32 %37, 0
  br i1 %.not18, label %40, label %38

38:                                               ; preds = %36
  %39 = tail call i64 @rb_fstring_new(ptr noundef nonnull @.str.165, i64 noundef 43) #21
  br label %51

40:                                               ; preds = %36
  %41 = and i32 %4, 8
  %.not19 = icmp eq i32 %41, 0
  br i1 %.not19, label %45, label %42

42:                                               ; preds = %40
  %43 = tail call i64 @rb_fstring_new(ptr noundef nonnull @.str.166, i64 noundef 54) #21
  %44 = load i64, ptr @rb_eNameError, align 8, !tbaa !7
  br label %51

45:                                               ; preds = %40
  %46 = and i32 %4, 16
  %.not20 = icmp eq i32 %46, 0
  br i1 %.not20, label %.thread, label %49

.thread:                                          ; preds = %45
  %47 = and i32 %4, 4
  %48 = load i64, ptr %2, align 8, !tbaa !7
  br label %54

49:                                               ; preds = %45
  %50 = tail call i64 @rb_fstring_new(ptr noundef nonnull @.str.167, i64 noundef 47) #21
  br label %51

51:                                               ; preds = %38, %49, %42, %34
  %.016 = phi i64 [ %35, %34 ], [ %39, %38 ], [ %43, %42 ], [ %50, %49 ]
  %.0 = phi i64 [ %6, %34 ], [ %6, %38 ], [ %44, %42 ], [ %6, %49 ]
  %52 = and i32 %4, 12
  %53 = load i64, ptr %2, align 8, !tbaa !7
  %.not.i22 = icmp eq i64 %.016, 0
  br i1 %.not.i22, label %54, label %58

54:                                               ; preds = %.thread, %51
  %55 = phi i64 [ %48, %.thread ], [ %53, %51 ]
  %56 = phi i32 [ %47, %.thread ], [ %52, %51 ]
  %.028 = phi i64 [ %6, %.thread ], [ %.0, %51 ]
  %57 = tail call i64 @rb_fstring_new(ptr noundef nonnull @.str.57, i64 noundef 36) #21
  br label %58

58:                                               ; preds = %54, %51
  %59 = phi i64 [ %53, %51 ], [ %55, %54 ]
  %60 = phi i32 [ %52, %51 ], [ %56, %54 ]
  %.027 = phi i64 [ %.0, %51 ], [ %.028, %54 ]
  %.013.i = phi i64 [ %.016, %51 ], [ %57, %54 ]
  %61 = load i64, ptr @rb_eNoMethodError, align 8, !tbaa !7
  %62 = icmp eq i64 %.027, %61
  br i1 %62, label %63, label %69

63:                                               ; preds = %58
  %64 = add i32 %1, -1
  %65 = sext i32 %64 to i64
  %66 = getelementptr i8, ptr %2, i64 8
  %67 = tail call i64 @rb_ary_new_from_values(i64 noundef %65, ptr noundef %66) #21
  %68 = tail call i64 @rb_nomethod_err_new(i64 noundef %.013.i, i64 noundef %3, i64 noundef %59, i64 noundef %67, i32 noundef %60) #21
  br label %rb_make_no_method_exception.exit

69:                                               ; preds = %58
  %70 = tail call i64 @rb_name_err_new(i64 noundef %.013.i, i64 noundef %3, i64 noundef %59) #21
  br label %rb_make_no_method_exception.exit

rb_make_no_method_exception.exit:                 ; preds = %63, %69
  %.0.i = phi i64 [ %68, %63 ], [ %70, %69 ]
  %71 = and i32 %4, 32
  %.not21 = icmp eq i32 %71, 0
  br i1 %.not21, label %72, label %73

72:                                               ; preds = %rb_make_no_method_exception.exit
  tail call void @rb_vm_pop_cfunc_frame()
  br label %73

73:                                               ; preds = %72, %rb_make_no_method_exception.exit
  tail call void @rb_exc_raise(i64 noundef %.0.i) #37
  unreachable
}